; Function Attrs: mustprogress nofree norecurse nosync nounwind willreturn memory(read, inaccessiblemem: none) uwtable
define dso_local noundef zeroext range(i8 0, 3) i8 @_ZN4llvm4yaml5Input11getNodeKindEv(ptr noundef nonnull readonly align 8 captures(none) dereferenceable(682) %0) unnamed_addr #11 align 2 {
  %2 = getelementptr inbounds nuw i8, ptr %0, i64 672
  %3 = load ptr, ptr %2, align 8
  %4 = load ptr, ptr %3, align 8
  %5 = getelementptr inbounds nuw i8, ptr %4, i64 32
  %6 = load i32, ptr %5, align 8
  %7 = add i32 %6, -1
  %spec.select.i.i.i.i.i.i.i.i = icmp ult i32 %7, 2
  %8 = icmp eq i32 %6, 4
  %spec.select = select i1 %8, i8 1, i8 2
  %.0 = select i1 %spec.select.i.i.i.i.i.i.i.i, i8 0, i8 %spec.select
  ret i8 %.0
}